; Function Attrs: nounwind sspstrong uwtable
define internal i64 @objspace_internal_super_of(i64 %0, i64 noundef %1) #0 {
  %3 = tail call i32 @rb_typeddata_is_kind_of(i64 noundef %1, ptr noundef nonnull @iow_data_type) #7
  %.not = icmp eq i32 %3, 0
  br i1 %.not, label %9, label %4

4:                                                ; preds = %2
  %5 = inttoptr i64 %1 to ptr
  %6 = getelementptr inbounds nuw i8, ptr %5, i64 32
  %7 = load ptr, ptr %6, align 8, !tbaa !22
  %8 = ptrtoint ptr %7 to i64
  br label %9

9:                                                ; preds = %4, %2
  %.0 = phi i64 [ %8, %4 ], [ %1, %2 ]
  %10 = icmp eq i64 %.0, 0
  %11 = and i64 %.0, 7
  %12 = icmp ne i64 %11, 0
  %13 = or i1 %10, %12
  br i1 %13, label %.thread, label %14

14:                                               ; preds = %9
  %15 = inttoptr i64 %.0 to ptr
  %16 = load i64, ptr %15, align 8, !tbaa !32
  %17 = trunc i64 %16 to i32
  %18 = and i32 %17, 31
  switch i32 %18, label %.thread [
    i32 3, label %19
    i32 2, label %19
    i32 28, label %19
  ]

19:                                               ; preds = %14, %14, %14
  %20 = getelementptr inbounds nuw i8, ptr %15, i64 16
  %21 = load i64, ptr %20, align 8, !tbaa !33
  %22 = and i64 %21, -5
  %.not.i = icmp eq i64 %22, 0
  br i1 %.not.i, label %wrap_klass_iow.exit, label %23

23:                                               ; preds = %19
  %24 = and i64 %21, 7
  %.not8.i = icmp eq i64 %24, 0
  br i1 %.not8.i, label %rbimpl_RB_TYPE_P_fastpath.exit.i, label %31

rbimpl_RB_TYPE_P_fastpath.exit.i:                 ; preds = %23
  %25 = inttoptr i64 %21 to ptr
  %26 = load i64, ptr %25, align 8, !tbaa !32
  %27 = and i64 %26, 31
  %28 = icmp eq i64 %27, 28
  br i1 %28, label %39, label %29

29:                                               ; preds = %rbimpl_RB_TYPE_P_fastpath.exit.i
  %30 = getelementptr inbounds nuw i8, ptr %25, i64 8
  br label %rb_class_of.exit.i

31:                                               ; preds = %23
  switch i64 %21, label %33 [
    i64 20, label %32
    i64 4, label %rb_class_of.exit.i
  ]

32:                                               ; preds = %31
  br label %rb_class_of.exit.i

33:                                               ; preds = %31
  %34 = and i64 %21, 1
  %.not.i.i = icmp eq i64 %34, 0
  br i1 %.not.i.i, label %35, label %rb_class_of.exit.i

35:                                               ; preds = %33
  %36 = and i64 %21, 254
  %37 = icmp eq i64 %36, 12
  %spec.select.i.i = select i1 %37, ptr @rb_cSymbol, ptr @rb_cFloat
  br label %rb_class_of.exit.i

rb_class_of.exit.i:                               ; preds = %35, %33, %32, %31, %29
  %.0.in.i.i = phi ptr [ @rb_cTrueClass, %32 ], [ %30, %29 ], [ @rb_cInteger, %33 ], [ %spec.select.i.i, %35 ], [ @rb_cNilClass, %31 ]
  %.0.i6.i = load i64, ptr %.0.in.i.i, align 8, !tbaa !6
  %38 = icmp eq i64 %.0.i6.i, 0
  br i1 %38, label %rb_class_of.exit._crit_edge.i, label %wrap_klass_iow.exit

rb_class_of.exit._crit_edge.i:                    ; preds = %rb_class_of.exit.i
  %.pre.i = inttoptr i64 %21 to ptr
  br label %39

39:                                               ; preds = %rb_class_of.exit._crit_edge.i, %rbimpl_RB_TYPE_P_fastpath.exit.i
  %.pre-phi.i = phi ptr [ %.pre.i, %rb_class_of.exit._crit_edge.i ], [ %25, %rbimpl_RB_TYPE_P_fastpath.exit.i ]
  %40 = load i64, ptr @rb_cInternalObjectWrapper, align 8, !tbaa !6
  %41 = tail call i64 @rb_data_typed_object_wrap(i64 noundef %40, ptr noundef %.pre-phi.i, ptr noundef nonnull @iow_data_type) #7
  br label %wrap_klass_iow.exit

wrap_klass_iow.exit:                              ; preds = %19, %rb_class_of.exit.i, %39
  %.0.i = phi i64 [ %41, %39 ], [ 4, %19 ], [ %21, %rb_class_of.exit.i ]
  ret i64 %.0.i

.thread:                                          ; preds = %9, %14
  %42 = load i64, ptr @rb_eArgError, align 8, !tbaa !6
  tail call void (i64, ptr, ...) @rb_raise(i64 noundef %42, ptr noundef nonnull @.str.97) #8
  unreachable
}